target datalayout = "e-m:e-p270:32:32-p271:32:32-p272:64:64-i64:64-i128:128-f80:128-n8:16:32:64-S128"
target triple = "x86_64-pc-linux-gnu"

%struct.ExprContext = type { i32, ptr, ptr, ptr, ptr, ptr, ptr, ptr, ptr, ptr, i64, i8, i64, i8, ptr, ptr, ptr, ptr }
%struct.ParamExecData = type { ptr, i64, i8 }

; Function Attrs: nounwind uwtable
define dso_local void @ExecSetParamPlanMulti(ptr noundef %0, ptr noundef %1) #0 {
  %3 = alloca ptr, align 8
  %4 = alloca ptr, align 8
  %5 = alloca i32, align 4
  %6 = alloca ptr, align 8
  store ptr %0, ptr %3, align 8
  store ptr %1, ptr %4, align 8
  call void @llvm.lifetime.start.p0(i64 4, ptr %5) #7
  store i32 -1, ptr %5, align 4
  br label %7

7:                                                ; preds = %28, %2
  %8 = load ptr, ptr %3, align 8
  %9 = load i32, ptr %5, align 4
  %10 = call i32 @bms_next_member(ptr noundef %8, i32 noundef %9)
  store i32 %10, ptr %5, align 4
  %11 = icmp sge i32 %10, 0
  br i1 %11, label %12, label %29

12:                                               ; preds = %7
  call void @llvm.lifetime.start.p0(i64 8, ptr %6) #7
  %13 = load ptr, ptr %4, align 8
  %14 = getelementptr inbounds nuw %struct.ExprContext, ptr %13, i32 0, i32 6
  %15 = load ptr, ptr %14, align 8
  %16 = load i32, ptr %5, align 4
  %17 = sext i32 %16 to i64
  %18 = getelementptr inbounds %struct.ParamExecData, ptr %15, i64 %17
  store ptr %18, ptr %6, align 8
  %19 = load ptr, ptr %6, align 8
  %20 = getelementptr inbounds nuw %struct.ParamExecData, ptr %19, i32 0, i32 0
  %21 = load ptr, ptr %20, align 8
  %22 = icmp ne ptr %21, null
  br i1 %22, label %23, label %28

23:                                               ; preds = %12
  %24 = load ptr, ptr %6, align 8
  %25 = getelementptr inbounds nuw %struct.ParamExecData, ptr %24, i32 0, i32 0
  %26 = load ptr, ptr %25, align 8
  %27 = load ptr, ptr %4, align 8
  call void @ExecSetParamPlan(ptr noundef %26, ptr noundef %27)
  br label %28

28:                                               ; preds = %23, %12
  call void @llvm.lifetime.end.p0(i64 8, ptr %6) #7
  br label %7, !llvm.loop !17

29:                                               ; preds = %7
  call void @llvm.lifetime.end.p0(i64 4, ptr %5) #7
  ret void
}