; Function Attrs: nounwind uwtable
define dso_local void @ExecSetParamPlanMulti(ptr noundef %0, ptr noundef readonly captures(none) %1) local_unnamed_addr #0 {
  %3 = tail call i32 @bms_next_member(ptr noundef %0, i32 noundef -1) #8
  %4 = icmp sgt i32 %3, -1
  br i1 %4, label %.lr.ph, label %._crit_edge

.lr.ph:                                           ; preds = %2
  %5 = getelementptr inbounds nuw i8, ptr %1, i64 48
  br label %6

6:                                                ; preds = %.lr.ph, %13
  %7 = phi i32 [ %3, %.lr.ph ], [ %14, %13 ]
  %8 = load ptr, ptr %5, align 8
  %9 = zext nneg i32 %7 to i64
  %10 = getelementptr inbounds nuw %struct.ParamExecData, ptr %8, i64 %9
  %11 = load ptr, ptr %10, align 8
  %.not = icmp eq ptr %11, null
  br i1 %.not, label %13, label %12

12:                                               ; preds = %6
  tail call void @ExecSetParamPlan(ptr noundef nonnull %11, ptr noundef nonnull %1)
  br label %13

13:                                               ; preds = %12, %6
  %14 = tail call i32 @bms_next_member(ptr noundef %0, i32 noundef %7) #8
  %15 = icmp sgt i32 %14, -1
  br i1 %15, label %6, label %._crit_edge, !llvm.loop !14

._crit_edge:                                      ; preds = %13, %2
  ret void
}